; Function Attrs: mustprogress nounwind uwtable
define dso_local void @_ZN4node9inspector19MainThreadInterface9AddObjectEiSt10unique_ptrINS0_9DeletableESt14default_deleteIS3_EE(ptr noundef nonnull align 8 dereferenceable(352) %this, i32 noundef %id, ptr nocapture noundef %object) local_unnamed_addr #3 align 2 {
entry:
  %id.addr = alloca i32, align 4
  store i32 %id, ptr %id.addr, align 4
  %0 = load ptr, ptr %object, align 8
  %cmp.i.i.not = icmp eq ptr %0, null
  br i1 %cmp.i.i.not, label %do.body4, label %do.end5

do.body4:                                         ; preds = %entry
  tail call void @_ZN4node6AssertERKNS_13AssertionInfoE(ptr noundef nonnull align 8 dereferenceable(24) @_ZZN4node9inspector19MainThreadInterface9AddObjectEiSt10unique_ptrINS0_9DeletableESt14default_deleteIS3_EEE4args) #20
  tail call void @abort() #21
  unreachable

do.end5:                                          ; preds = %entry
  %managed_objects_ = getelementptr inbounds i8, ptr %this, i64 296
  %call.i = call noundef nonnull align 8 dereferenceable(8) ptr @_ZNSt8__detail9_Map_baseIiSt4pairIKiSt10unique_ptrIN4node9inspector9DeletableESt14default_deleteIS6_EEESaISA_ENS_10_Select1stESt8equal_toIiESt4hashIiENS_18_Mod_range_hashingENS_20_Default_ranged_hashENS_20_Prime_rehash_policyENS_17_Hashtable_traitsILb0ELb0ELb1EEELb1EEixERS2_(ptr noundef nonnull align 1 dereferenceable(1) %managed_objects_, ptr noundef nonnull align 4 dereferenceable(4) %id.addr)
  %1 = load ptr, ptr %object, align 8
  store ptr null, ptr %object, align 8
  %2 = load ptr, ptr %call.i, align 8
  store ptr %1, ptr %call.i, align 8
  %tobool.not.i.i.i.i = icmp eq ptr %2, null
  br i1 %tobool.not.i.i.i.i, label %_ZNSt10unique_ptrIN4node9inspector9DeletableESt14default_deleteIS2_EEaSEOS5_.exit, label %_ZNKSt14default_deleteIN4node9inspector9DeletableEEclEPS2_.exit.i.i.i.i

_ZNKSt14default_deleteIN4node9inspector9DeletableEEclEPS2_.exit.i.i.i.i: ; preds = %do.end5
  %vtable.i.i.i.i.i = load ptr, ptr %2, align 8
  %vfn.i.i.i.i.i = getelementptr inbounds i8, ptr %vtable.i.i.i.i.i, i64 8
  %3 = load ptr, ptr %vfn.i.i.i.i.i, align 8
  call void %3(ptr noundef nonnull align 8 dereferenceable(8) %2) #20
  br label %_ZNSt10unique_ptrIN4node9inspector9DeletableESt14default_deleteIS2_EEaSEOS5_.exit

_ZNSt10unique_ptrIN4node9inspector9DeletableESt14default_deleteIS2_EEaSEOS5_.exit: ; preds = %do.end5, %_ZNKSt14default_deleteIN4node9inspector9DeletableEEclEPS2_.exit.i.i.i.i
  ret void
}